target datalayout = "e-m:e-p270:32:32-p271:32:32-p272:64:64-i64:64-i128:128-f80:128-n8:16:32:64-S128"
target triple = "x86_64-pc-linux-gnu"

@proto_register_sysex_digitech.sysex_digitech_subtrees = internal global [1 x ptr] [ptr @ett_sysex_digitech], align 8
@.str.57 = private unnamed_addr constant [31 x i8] c"MIDI System Exclusive DigiTech\00", align 1
@.str.58 = private unnamed_addr constant [15 x i8] c"SYSEX DigiTech\00", align 1
@.str.59 = private unnamed_addr constant [15 x i8] c"sysex_digitech\00", align 1
@proto_sysex_digitech = internal global i32 0, align 4
@sysex_digitech_handle = internal global ptr null, align 8

; Function Attrs: null_pointer_is_valid sspstrong uwtable
define hidden void @proto_register_sysex_digitech() #0 {
  %1 = alloca ptr, align 8
  call void @llvm.lifetime.start.p0(i64 8, ptr %1) #5
  %2 = call i32 @proto_register_protocol(ptr noundef @.str.57, ptr noundef @.str.58, ptr noundef @.str.59)
  store i32 %2, ptr @proto_sysex_digitech, align 4
  %3 = load i32, ptr @proto_sysex_digitech, align 4
  call void @proto_register_field_array(i32 noundef %3, ptr noundef @proto_register_sysex_digitech.hf, i32 noundef 49)
  call void @proto_register_subtree_array(ptr noundef @proto_register_sysex_digitech.sysex_digitech_subtrees, i32 noundef 1)
  %4 = load i32, ptr @proto_sysex_digitech, align 4
  %5 = call ptr @expert_register_protocol(i32 noundef %4)
  store ptr %5, ptr %1, align 8
  %6 = load ptr, ptr %1, align 8
  call void @expert_register_field_array(ptr noundef %6, ptr noundef @proto_register_sysex_digitech.ei, i32 noundef 2)
  %7 = load i32, ptr @proto_sysex_digitech, align 4
  %8 = call ptr @register_dissector(ptr noundef @.str.59, ptr noundef @dissect_sysex_digitech_command, i32 noundef %7)
  store ptr %8, ptr @sysex_digitech_handle, align 8
  call void @llvm.lifetime.end.p0(i64 8, ptr %1) #5
  ret void
}